target datalayout = "e-m:e-p270:32:32-p271:32:32-p272:64:64-i64:64-i128:128-f80:128-n8:16:32:64-S128"
target triple = "x86_64-pc-linux-gnu"

%struct.png_struct_def = type { [1 x %struct.__jmp_buf_tag], ptr, ptr, i64, ptr, ptr, ptr, ptr, ptr, ptr, ptr, ptr, i8, i8, i32, i32, i32, i32, %struct.z_stream_s, i32, i32, i32, i32, i64, i32, i32, i32, ptr, ptr, i64, i32, i32, ptr, i16, i32, i16, i8, i8, i8, i8, i8, i8, i8, i8, i8, i8, i8, i8, i8, i8, i16, i8, i32, %struct.png_color_16_struct, %struct.png_color_16_struct, i32, i32, ptr, ptr, ptr, ptr, ptr, ptr, %struct.png_color_8_struct, %struct.png_color_8_struct, ptr, %struct.png_color_16_struct, ptr, ptr, ptr, ptr, ptr, ptr, ptr, ptr, ptr, i32, i32, i64, i64, i64, i64, i32, i32, ptr, ptr, [29 x i8], i32, ptr, ptr, i32, i32, ptr, i8, i8, i16, i16, ptr, i32, i8, ptr, ptr, ptr, ptr, ptr, ptr, ptr, i8, i32, i32, i32, i64, %struct.png_unknown_chunk_t, i64, ptr, i64, i32, i32, ptr, [4 x ptr], %struct.png_colorspace }
%struct.__jmp_buf_tag = type { [8 x i64], i32, %struct.__sigset_t }
%struct.__sigset_t = type { [16 x i64] }
%struct.z_stream_s = type { ptr, i32, i64, ptr, i32, i64, ptr, ptr, ptr, ptr, ptr, i32, i64, i64 }
%struct.png_color_8_struct = type { i8, i8, i8, i8, i8 }
%struct.png_color_16_struct = type { i8, i16, i16, i16, i16 }
%struct.png_unknown_chunk_t = type { [5 x i8], ptr, i64, i8 }
%struct.png_colorspace = type { i32, %struct.png_xy, %struct.png_XYZ, i16, i16 }
%struct.png_xy = type { i32, i32, i32, i32, i32, i32, i32, i32 }
%struct.png_XYZ = type { i32, i32, i32, i32, i32, i32, i32, i32, i32 }

@.str = private unnamed_addr constant [38 x i8] c"png_set_filler not supported on write\00", align 1

; Function Attrs: nounwind uwtable
define hidden void @png_set_filler(ptr noalias noundef %0, i32 noundef %1, i32 noundef %2) #0 {
  %4 = alloca ptr, align 8
  %5 = alloca i32, align 4
  %6 = alloca i32, align 4
  store ptr %0, ptr %4, align 8
  store i32 %1, ptr %5, align 4
  store i32 %2, ptr %6, align 4
  %7 = load ptr, ptr %4, align 8
  %8 = icmp eq ptr %7, null
  br i1 %8, label %9, label %10

9:                                                ; preds = %3
  br label %40

10:                                               ; preds = %3
  %11 = load ptr, ptr %4, align 8
  %12 = getelementptr inbounds %struct.png_struct_def, ptr %11, i32 0, i32 14
  %13 = load i32, ptr %12, align 4
  %14 = and i32 %13, 32768
  %15 = icmp ne i32 %14, 0
  br i1 %15, label %16, label %21

16:                                               ; preds = %10
  %17 = load i32, ptr %5, align 4
  %18 = trunc i32 %17 to i16
  %19 = load ptr, ptr %4, align 8
  %20 = getelementptr inbounds %struct.png_struct_def, ptr %19, i32 0, i32 50
  store i16 %18, ptr %20, align 8
  br label %23

21:                                               ; preds = %10
  %22 = load ptr, ptr %4, align 8
  call void @png_app_error(ptr noundef %22, ptr noundef @.str)
  br label %40

23:                                               ; preds = %16
  %24 = load ptr, ptr %4, align 8
  %25 = getelementptr inbounds %struct.png_struct_def, ptr %24, i32 0, i32 16
  %26 = load i32, ptr %25, align 4
  %27 = or i32 %26, 32768
  store i32 %27, ptr %25, align 4
  %28 = load i32, ptr %6, align 4
  %29 = icmp eq i32 %28, 1
  br i1 %29, label %30, label %35

30:                                               ; preds = %23
  %31 = load ptr, ptr %4, align 8
  %32 = getelementptr inbounds %struct.png_struct_def, ptr %31, i32 0, i32 15
  %33 = load i32, ptr %32, align 8
  %34 = or i32 %33, 128
  store i32 %34, ptr %32, align 8
  br label %40

35:                                               ; preds = %23
  %36 = load ptr, ptr %4, align 8
  %37 = getelementptr inbounds %struct.png_struct_def, ptr %36, i32 0, i32 15
  %38 = load i32, ptr %37, align 8
  %39 = and i32 %38, -129
  store i32 %39, ptr %37, align 8
  br label %40

40:                                               ; preds = %35, %30, %21, %9
  ret void
}