; Function Attrs: nounwind uwtable
define hidden void @png_set_filler(ptr noalias noundef %0, i32 noundef %1, i32 noundef %2) local_unnamed_addr #2 {
  %4 = icmp eq ptr %0, null
  br i1 %4, label %23, label %5

5:                                                ; preds = %3
  %6 = getelementptr inbounds i8, ptr %0, i64 292
  %7 = load i32, ptr %6, align 4
  %8 = and i32 %7, 32768
  %.not = icmp eq i32 %8, 0
  br i1 %.not, label %18, label %9

9:                                                ; preds = %5
  %10 = trunc i32 %1 to i16
  %11 = getelementptr inbounds i8, ptr %0, i64 528
  store i16 %10, ptr %11, align 8
  %12 = getelementptr inbounds i8, ptr %0, i64 300
  %13 = load i32, ptr %12, align 4
  %14 = or i32 %13, 32768
  store i32 %14, ptr %12, align 4
  %15 = icmp eq i32 %2, 1
  %16 = getelementptr inbounds i8, ptr %0, i64 296
  %17 = load i32, ptr %16, align 8
  br i1 %15, label %19, label %21

18:                                               ; preds = %5
  tail call void @png_app_error(ptr noundef nonnull %0, ptr noundef nonnull @.str) #8
  br label %23

19:                                               ; preds = %9
  %20 = or i32 %17, 128
  store i32 %20, ptr %16, align 8
  br label %23

21:                                               ; preds = %9
  %22 = and i32 %17, -129
  store i32 %22, ptr %16, align 8
  br label %23

23:                                               ; preds = %3, %21, %19, %18
  ret void
}